target datalayout = "e-m:e-p270:32:32-p271:32:32-p272:64:64-i64:64-i128:128-f80:128-n8:16:32:64-S128"
target triple = "x86_64-pc-linux-gnu"

%struct.Scheduler = type { ptr, ptr, i32, ptr, i32, i32, %union.pthread_mutex_t, i32, i32, %union.pthread_mutex_t, %union.pthread_cond_t, ptr, i32, ptr, i32, ptr, i32, ptr, i32, ptr, i32, i32, i32, %union.pthread_mutex_t, i64 }
%union.pthread_cond_t = type { %struct.__pthread_cond_s }
%struct.__pthread_cond_s = type { %union.__atomic_wide_counter, %union.__atomic_wide_counter, [2 x i32], [2 x i32], i32, i32, [2 x i32] }
%union.__atomic_wide_counter = type { i64 }
%union.pthread_mutex_t = type { %struct.__pthread_mutex_s }
%struct.__pthread_mutex_s = type { i32, i32, i32, i32, i32, i16, i16, %struct.__pthread_internal_list }
%struct.__pthread_internal_list = type { ptr, ptr }
%struct.SchTask = type { ptr, %struct.SchedulerNode, ptr, ptr, i64, i32 }
%struct.SchedulerNode = type { i32, i32, i32 }
%struct.SchMux = type { ptr, ptr, i32, i32, ptr, %struct.SchTask, i32, ptr, i32, ptr }
%struct.SchMuxStream = type { %struct.SchedulerNode, %struct.SchedulerNode, ptr, i32, %struct.PreMuxQueue, i32, i64, i32 }
%struct.PreMuxQueue = type { ptr, i32, i64, i64 }

@.str = private unnamed_addr constant [30 x i8] c"Assertion %s failed at %s:%d\0A\00", align 1
@.str.1 = private unnamed_addr constant [22 x i8] c"mux_idx < sch->nb_mux\00", align 1
@.str.2 = private unnamed_addr constant [23 x i8] c"fftools/ffmpeg_sched.c\00", align 1
@.str.22 = private unnamed_addr constant [29 x i8] c"stream_idx < mux->nb_streams\00", align 1

; Function Attrs: nounwind uwtable
define void @sch_mux_stream_buffering(ptr noundef %0, i32 noundef %1, i32 noundef %2, i64 noundef %3, i32 noundef %4) #0 {
  %6 = alloca ptr, align 8
  %7 = alloca i32, align 4
  %8 = alloca i32, align 4
  %9 = alloca i64, align 8
  %10 = alloca i32, align 4
  %11 = alloca ptr, align 8
  %12 = alloca ptr, align 8
  store ptr %0, ptr %6, align 8, !tbaa !10
  store i32 %1, ptr %7, align 4, !tbaa !12
  store i32 %2, ptr %8, align 4, !tbaa !12
  store i64 %3, ptr %9, align 8, !tbaa !92
  store i32 %4, ptr %10, align 4, !tbaa !12
  call void @llvm.lifetime.start.p0(i64 8, ptr %11) #9
  call void @llvm.lifetime.start.p0(i64 8, ptr %12) #9
  br label %13

13:                                               ; preds = %5
  %14 = load i32, ptr %7, align 4, !tbaa !12
  %15 = load ptr, ptr %6, align 8, !tbaa !10
  %16 = getelementptr inbounds nuw %struct.Scheduler, ptr %15, i32 0, i32 4
  %17 = load i32, ptr %16, align 8, !tbaa !39
  %18 = icmp ult i32 %14, %17
  br i1 %18, label %20, label %19

19:                                               ; preds = %13
  call void (ptr, i32, ptr, ...) @av_log(ptr noundef null, i32 noundef 0, ptr noundef @.str, ptr noundef @.str.1, ptr noundef @.str.2, i32 noundef 1203)
  call void @abort() #10
  unreachable

20:                                               ; preds = %13
  br label %21

21:                                               ; preds = %20
  br label %22

22:                                               ; preds = %21
  %23 = load ptr, ptr %6, align 8, !tbaa !10
  %24 = getelementptr inbounds nuw %struct.Scheduler, ptr %23, i32 0, i32 3
  %25 = load ptr, ptr %24, align 8, !tbaa !40
  %26 = load i32, ptr %7, align 4, !tbaa !12
  %27 = zext i32 %26 to i64
  %28 = getelementptr inbounds nuw %struct.SchMux, ptr %25, i64 %27
  store ptr %28, ptr %11, align 8, !tbaa !41
  br label %29

29:                                               ; preds = %22
  %30 = load i32, ptr %8, align 4, !tbaa !12
  %31 = load ptr, ptr %11, align 8, !tbaa !41
  %32 = getelementptr inbounds nuw %struct.SchMux, ptr %31, i32 0, i32 2
  %33 = load i32, ptr %32, align 8, !tbaa !42
  %34 = icmp ult i32 %30, %33
  br i1 %34, label %36, label %35

35:                                               ; preds = %29
  call void (ptr, i32, ptr, ...) @av_log(ptr noundef null, i32 noundef 0, ptr noundef @.str, ptr noundef @.str.22, ptr noundef @.str.2, i32 noundef 1206)
  call void @abort() #10
  unreachable

36:                                               ; preds = %29
  br label %37

37:                                               ; preds = %36
  br label %38

38:                                               ; preds = %37
  %39 = load ptr, ptr %11, align 8, !tbaa !41
  %40 = getelementptr inbounds nuw %struct.SchMux, ptr %39, i32 0, i32 1
  %41 = load ptr, ptr %40, align 8, !tbaa !46
  %42 = load i32, ptr %8, align 4, !tbaa !12
  %43 = zext i32 %42 to i64
  %44 = getelementptr inbounds nuw %struct.SchMuxStream, ptr %41, i64 %43
  store ptr %44, ptr %12, align 8, !tbaa !47
  %45 = load i32, ptr %10, align 4, !tbaa !12
  %46 = load ptr, ptr %12, align 8, !tbaa !47
  %47 = getelementptr inbounds nuw %struct.SchMuxStream, ptr %46, i32 0, i32 4
  %48 = getelementptr inbounds nuw %struct.PreMuxQueue, ptr %47, i32 0, i32 1
  store i32 %45, ptr %48, align 8, !tbaa !157
  %49 = load i64, ptr %9, align 8, !tbaa !92
  %50 = load ptr, ptr %12, align 8, !tbaa !47
  %51 = getelementptr inbounds nuw %struct.SchMuxStream, ptr %50, i32 0, i32 4
  %52 = getelementptr inbounds nuw %struct.PreMuxQueue, ptr %51, i32 0, i32 3
  store i64 %49, ptr %52, align 8, !tbaa !158
  call void @llvm.lifetime.end.p0(i64 8, ptr %12) #9
  call void @llvm.lifetime.end.p0(i64 8, ptr %11) #9
  ret void
}