; Function Attrs: nounwind uwtable
define void @sch_mux_stream_buffering(ptr noundef readonly captures(none) %0, i32 noundef %1, i32 noundef %2, i64 noundef %3, i32 noundef %4) local_unnamed_addr #0 {
  %6 = getelementptr inbounds nuw i8, ptr %0, i64 32
  %7 = load i32, ptr %6, align 8, !tbaa !20
  %8 = icmp ult i32 %1, %7
  br i1 %8, label %10, label %9

9:                                                ; preds = %5
  tail call void (ptr, i32, ptr, ...) @av_log(ptr noundef null, i32 noundef 0, ptr noundef nonnull @.str, ptr noundef nonnull @.str.1, ptr noundef nonnull @.str.2, i32 noundef 1203) #9
  tail call void @abort() #10
  unreachable

10:                                               ; preds = %5
  %11 = getelementptr inbounds nuw i8, ptr %0, i64 24
  %12 = load ptr, ptr %11, align 8, !tbaa !35
  %13 = zext i32 %1 to i64
  %14 = getelementptr inbounds nuw %struct.SchMux, ptr %12, i64 %13
  %15 = getelementptr inbounds nuw i8, ptr %14, i64 16
  %16 = load i32, ptr %15, align 8, !tbaa !36
  %17 = icmp ult i32 %2, %16
  br i1 %17, label %19, label %18

18:                                               ; preds = %10
  tail call void (ptr, i32, ptr, ...) @av_log(ptr noundef null, i32 noundef 0, ptr noundef nonnull @.str, ptr noundef nonnull @.str.22, ptr noundef nonnull @.str.2, i32 noundef 1206) #9
  tail call void @abort() #10
  unreachable

19:                                               ; preds = %10
  %20 = getelementptr inbounds nuw i8, ptr %14, i64 8
  %21 = load ptr, ptr %20, align 8, !tbaa !41
  %22 = zext i32 %2 to i64
  %23 = getelementptr inbounds nuw %struct.SchMuxStream, ptr %21, i64 %22, i32 4
  %24 = getelementptr inbounds nuw i8, ptr %23, i64 8
  store i32 %4, ptr %24, align 8, !tbaa !134
  %25 = getelementptr inbounds nuw i8, ptr %23, i64 24
  store i64 %3, ptr %25, align 8, !tbaa !135
  ret void
}